; Function Attrs: mustprogress nofree norecurse nosync nounwind null_pointer_is_valid sspstrong willreturn memory(write, argmem: none, inaccessiblemem: none) uwtable
define range(i32 0, 7) i32 @ws_log_set_level(i32 noundef %0) local_unnamed_addr #4 {
  %2 = add i32 %0, -9
  %or.cond = icmp ult i32 %2, -8
  br i1 %or.cond, label %4, label %3

3:                                                ; preds = %1
  %spec.store.select = tail call i32 @llvm.umin.i32(i32 %0, i32 6)
  store i32 %spec.store.select, ptr @current_log_level, align 4
  br label %4

4:                                                ; preds = %1, %3
  %.0 = phi i32 [ %spec.store.select, %3 ], [ 0, %1 ]
  ret i32 %.0
}